(dp1
S'project_paths'
p2
(lp3
VC:\u005cUsers\u005cSteve\u005cDocuments\u005cGitHub\u005cFaceTrackerPan\u005cPython\u005cPyBasicComms
p4
aVC:\u005cUsers\u005cSteve\u005cDocuments\u005cGitHub\u005cFaceTrackerPan\u005cPython\u005cFaceTrack1D
p5
aVC:\u005cUsers\u005cSteve\u005cDocuments\u005cGitHub\u005cFaceTrackerPan\u005cPython\u005cFaceTrack1DSM
p6
aVC:\u005cUsers\u005cSteve\u005cDocuments\u005cGitHub\u005cFaceTrackerPan\u005cPython\u005cFaceTrack2DSM
p7
asS'name'
p8
VPython
p9
s.